; ModuleID = '46/2087.c'
source_filename = "46/2087.c"
target datalayout = "e-m:e-p270:32:32-p271:32:32-p272:64:64-i64:64-f80:128-n8:16:32:64-S128"
target triple = "x86_64-pc-linux-gnu"

@.str = private unnamed_addr constant [6 x i8] c"%d %d\00", align 1
@.str.1 = private unnamed_addr constant [3 x i8] c"%d\00", align 1
@.str.2 = private unnamed_addr constant [4 x i8] c"%d\0A\00", align 1

; Function Attrs: noinline nounwind uwtable
define dso_local i32 @main() #0 {
  %1 = alloca i32, align 4
  %2 = alloca i32, align 4
  %3 = alloca i32, align 4
  %4 = alloca [100 x [100 x i32]], align 16
  %5 = alloca i32, align 4
  %6 = alloca i32, align 4
  %7 = alloca i32, align 4
  %8 = alloca i32, align 4
  %9 = alloca i32, align 4
  %10 = alloca i32, align 4
  %11 = alloca i32, align 4
  %12 = alloca i32, align 4
  %13 = alloca i32, align 4
  store i32 0, i32* %1, align 4
  %14 = call i32 (i8*, ...) @__isoc99_scanf(i8* getelementptr inbounds ([6 x i8], [6 x i8]* @.str, i64 0, i64 0), i32* %2, i32* %3)
  store i32 0, i32* %12, align 4
  br label %15

15:                                               ; preds = %36, %0
  %16 = load i32, i32* %12, align 4
  %17 = load i32, i32* %2, align 4
  %18 = icmp slt i32 %16, %17
  br i1 %18, label %19, label %39

19:                                               ; preds = %15
  store i32 0, i32* %13, align 4
  br label %20

20:                                               ; preds = %32, %19
  %21 = load i32, i32* %13, align 4
  %22 = load i32, i32* %3, align 4
  %23 = icmp slt i32 %21, %22
  br i1 %23, label %24, label %35

24:                                               ; preds = %20
  %25 = load i32, i32* %12, align 4
  %26 = sext i32 %25 to i64
  %27 = getelementptr inbounds [100 x [100 x i32]], [100 x [100 x i32]]* %4, i64 0, i64 %26
  %28 = load i32, i32* %13, align 4
  %29 = sext i32 %28 to i64
  %30 = getelementptr inbounds [100 x i32], [100 x i32]* %27, i64 0, i64 %29
  %31 = call i32 (i8*, ...) @__isoc99_scanf(i8* getelementptr inbounds ([3 x i8], [3 x i8]* @.str.1, i64 0, i64 0), i32* %30)
  br label %32

32:                                               ; preds = %24
  %33 = load i32, i32* %13, align 4
  %34 = add nsw i32 %33, 1
  store i32 %34, i32* %13, align 4
  br label %20

35:                                               ; preds = %20
  br label %36

36:                                               ; preds = %35
  %37 = load i32, i32* %12, align 4
  %38 = add nsw i32 %37, 1
  store i32 %38, i32* %12, align 4
  br label %15

39:                                               ; preds = %15
  store i32 0, i32* %5, align 4
  br label %40

40:                                               ; preds = %137, %39
  %41 = load i32, i32* %5, align 4
  %42 = load i32, i32* %2, align 4
  %43 = sdiv i32 %42, 2
  %44 = icmp slt i32 %41, %43
  br i1 %44, label %45, label %50

45:                                               ; preds = %40
  %46 = load i32, i32* %5, align 4
  %47 = load i32, i32* %3, align 4
  %48 = sdiv i32 %47, 2
  %49 = icmp slt i32 %46, %48
  br label %50

50:                                               ; preds = %45, %40
  %51 = phi i1 [ false, %40 ], [ %49, %45 ]
  br i1 %51, label %52, label %140

52:                                               ; preds = %50
  %53 = load i32, i32* %5, align 4
  store i32 %53, i32* %6, align 4
  br label %54

54:                                               ; preds = %70, %52
  %55 = load i32, i32* %6, align 4
  %56 = load i32, i32* %3, align 4
  %57 = sub nsw i32 %56, 1
  %58 = load i32, i32* %5, align 4
  %59 = sub nsw i32 %57, %58
  %60 = icmp slt i32 %55, %59
  br i1 %60, label %61, label %73

61:                                               ; preds = %54
  %62 = load i32, i32* %5, align 4
  %63 = sext i32 %62 to i64
  %64 = getelementptr inbounds [100 x [100 x i32]], [100 x [100 x i32]]* %4, i64 0, i64 %63
  %65 = load i32, i32* %6, align 4
  %66 = sext i32 %65 to i64
  %67 = getelementptr inbounds [100 x i32], [100 x i32]* %64, i64 0, i64 %66
  %68 = load i32, i32* %67, align 4
  %69 = call i32 (i8*, ...) @printf(i8* getelementptr inbounds ([4 x i8], [4 x i8]* @.str.2, i64 0, i64 0), i32 %68)
  br label %70

70:                                               ; preds = %61
  %71 = load i32, i32* %6, align 4
  %72 = add nsw i32 %71, 1
  store i32 %72, i32* %6, align 4
  br label %54

73:                                               ; preds = %54
  %74 = load i32, i32* %5, align 4
  store i32 %74, i32* %7, align 4
  br label %75

75:                                               ; preds = %91, %73
  %76 = load i32, i32* %7, align 4
  %77 = load i32, i32* %2, align 4
  %78 = sub nsw i32 %77, 1
  %79 = load i32, i32* %5, align 4
  %80 = sub nsw i32 %78, %79
  %81 = icmp slt i32 %76, %80
  br i1 %81, label %82, label %94

82:                                               ; preds = %75
  %83 = load i32, i32* %7, align 4
  %84 = sext i32 %83 to i64
  %85 = getelementptr inbounds [100 x [100 x i32]], [100 x [100 x i32]]* %4, i64 0, i64 %84
  %86 = load i32, i32* %6, align 4
  %87 = sext i32 %86 to i64
  %88 = getelementptr inbounds [100 x i32], [100 x i32]* %85, i64 0, i64 %87
  %89 = load i32, i32* %88, align 4
  %90 = call i32 (i8*, ...) @printf(i8* getelementptr inbounds ([4 x i8], [4 x i8]* @.str.2, i64 0, i64 0), i32 %89)
  br label %91

91:                                               ; preds = %82
  %92 = load i32, i32* %7, align 4
  %93 = add nsw i32 %92, 1
  store i32 %93, i32* %7, align 4
  br label %75

94:                                               ; preds = %75
  %95 = load i32, i32* %3, align 4
  %96 = sub nsw i32 %95, 1
  %97 = load i32, i32* %5, align 4
  %98 = sub nsw i32 %96, %97
  store i32 %98, i32* %8, align 4
  br label %99

99:                                               ; preds = %112, %94
  %100 = load i32, i32* %8, align 4
  %101 = load i32, i32* %5, align 4
  %102 = icmp sgt i32 %100, %101
  br i1 %102, label %103, label %115

103:                                              ; preds = %99
  %104 = load i32, i32* %7, align 4
  %105 = sext i32 %104 to i64
  %106 = getelementptr inbounds [100 x [100 x i32]], [100 x [100 x i32]]* %4, i64 0, i64 %105
  %107 = load i32, i32* %8, align 4
  %108 = sext i32 %107 to i64
  %109 = getelementptr inbounds [100 x i32], [100 x i32]* %106, i64 0, i64 %108
  %110 = load i32, i32* %109, align 4
  %111 = call i32 (i8*, ...) @printf(i8* getelementptr inbounds ([4 x i8], [4 x i8]* @.str.2, i64 0, i64 0), i32 %110)
  br label %112

112:                                              ; preds = %103
  %113 = load i32, i32* %8, align 4
  %114 = add nsw i32 %113, -1
  store i32 %114, i32* %8, align 4
  br label %99

115:                                              ; preds = %99
  %116 = load i32, i32* %2, align 4
  %117 = sub nsw i32 %116, 1
  %118 = load i32, i32* %5, align 4
  %119 = sub nsw i32 %117, %118
  store i32 %119, i32* %9, align 4
  br label %120

120:                                              ; preds = %133, %115
  %121 = load i32, i32* %9, align 4
  %122 = load i32, i32* %5, align 4
  %123 = icmp sgt i32 %121, %122
  br i1 %123, label %124, label %136

124:                                              ; preds = %120
  %125 = load i32, i32* %9, align 4
  %126 = sext i32 %125 to i64
  %127 = getelementptr inbounds [100 x [100 x i32]], [100 x [100 x i32]]* %4, i64 0, i64 %126
  %128 = load i32, i32* %8, align 4
  %129 = sext i32 %128 to i64
  %130 = getelementptr inbounds [100 x i32], [100 x i32]* %127, i64 0, i64 %129
  %131 = load i32, i32* %130, align 4
  %132 = call i32 (i8*, ...) @printf(i8* getelementptr inbounds ([4 x i8], [4 x i8]* @.str.2, i64 0, i64 0), i32 %131)
  br label %133

133:                                              ; preds = %124
  %134 = load i32, i32* %9, align 4
  %135 = add nsw i32 %134, -1
  store i32 %135, i32* %9, align 4
  br label %120

136:                                              ; preds = %120
  br label %137

137:                                              ; preds = %136
  %138 = load i32, i32* %5, align 4
  %139 = add nsw i32 %138, 1
  store i32 %139, i32* %5, align 4
  br label %40

140:                                              ; preds = %50
  %141 = load i32, i32* %2, align 4
  %142 = srem i32 %141, 2
  %143 = icmp eq i32 %142, 1
  br i1 %143, label %144, label %171

144:                                              ; preds = %140
  %145 = load i32, i32* %3, align 4
  %146 = load i32, i32* %2, align 4
  %147 = icmp sge i32 %145, %146
  br i1 %147, label %148, label %171

148:                                              ; preds = %144
  %149 = load i32, i32* %2, align 4
  %150 = sdiv i32 %149, 2
  store i32 %150, i32* %10, align 4
  %151 = load i32, i32* %10, align 4
  store i32 %151, i32* %11, align 4
  br label %152

152:                                              ; preds = %167, %148
  %153 = load i32, i32* %11, align 4
  %154 = load i32, i32* %3, align 4
  %155 = load i32, i32* %10, align 4
  %156 = sub nsw i32 %154, %155
  %157 = icmp slt i32 %153, %156
  br i1 %157, label %158, label %170

158:                                              ; preds = %152
  %159 = load i32, i32* %10, align 4
  %160 = sext i32 %159 to i64
  %161 = getelementptr inbounds [100 x [100 x i32]], [100 x [100 x i32]]* %4, i64 0, i64 %160
  %162 = load i32, i32* %11, align 4
  %163 = sext i32 %162 to i64
  %164 = getelementptr inbounds [100 x i32], [100 x i32]* %161, i64 0, i64 %163
  %165 = load i32, i32* %164, align 4
  %166 = call i32 (i8*, ...) @printf(i8* getelementptr inbounds ([4 x i8], [4 x i8]* @.str.2, i64 0, i64 0), i32 %165)
  br label %167

167:                                              ; preds = %158
  %168 = load i32, i32* %11, align 4
  %169 = add nsw i32 %168, 1
  store i32 %169, i32* %11, align 4
  br label %152

170:                                              ; preds = %152
  br label %203

171:                                              ; preds = %144, %140
  %172 = load i32, i32* %3, align 4
  %173 = srem i32 %172, 2
  %174 = icmp eq i32 %173, 1
  br i1 %174, label %175, label %202

175:                                              ; preds = %171
  %176 = load i32, i32* %2, align 4
  %177 = load i32, i32* %3, align 4
  %178 = icmp sgt i32 %176, %177
  br i1 %178, label %179, label %202

179:                                              ; preds = %175
  %180 = load i32, i32* %3, align 4
  %181 = sdiv i32 %180, 2
  store i32 %181, i32* %10, align 4
  %182 = load i32, i32* %10, align 4
  store i32 %182, i32* %11, align 4
  br label %183

183:                                              ; preds = %198, %179
  %184 = load i32, i32* %11, align 4
  %185 = load i32, i32* %2, align 4
  %186 = load i32, i32* %10, align 4
  %187 = sub nsw i32 %185, %186
  %188 = icmp slt i32 %184, %187
  br i1 %188, label %189, label %201

189:                                              ; preds = %183
  %190 = load i32, i32* %11, align 4
  %191 = sext i32 %190 to i64
  %192 = getelementptr inbounds [100 x [100 x i32]], [100 x [100 x i32]]* %4, i64 0, i64 %191
  %193 = load i32, i32* %10, align 4
  %194 = sext i32 %193 to i64
  %195 = getelementptr inbounds [100 x i32], [100 x i32]* %192, i64 0, i64 %194
  %196 = load i32, i32* %195, align 4
  %197 = call i32 (i8*, ...) @printf(i8* getelementptr inbounds ([4 x i8], [4 x i8]* @.str.2, i64 0, i64 0), i32 %196)
  br label %198

198:                                              ; preds = %189
  %199 = load i32, i32* %11, align 4
  %200 = add nsw i32 %199, 1
  store i32 %200, i32* %11, align 4
  br label %183

201:                                              ; preds = %183
  br label %202

202:                                              ; preds = %201, %175, %171
  br label %203

203:                                              ; preds = %202, %170
  ret i32 0
}

declare dso_local i32 @__isoc99_scanf(i8*, ...) #1

declare dso_local i32 @printf(i8*, ...) #1


!llvm.module.flags = !{!0}
!llvm.ident = !{!1}

!0 = !{i32 1, !"wchar_size", i32 4}
!1 = !{!"clang version 10.0.0-4ubuntu1 "}
